target datalayout = "e-m:e-p270:32:32-p271:32:32-p272:64:64-i64:64-i128:128-f80:128-n8:16:32:64-S128"
target triple = "x86_64-pc-linux-gnu"

%struct.bio_st = type { ptr, ptr, ptr, i32, i32, i32, i32, i32, i32, ptr, ptr, i64, i64 }
%struct.bio_connect_st = type { i32, ptr, ptr, i32, i16, %struct.sockaddr_storage, i32, ptr }
%struct.sockaddr_storage = type { i16, [118 x i8], i64 }

; Function Attrs: nounwind uwtable
define internal i32 @conn_write(ptr noundef %0, ptr noundef %1, i32 noundef %2) #0 {
  %4 = alloca i32, align 4
  %5 = alloca ptr, align 8
  %6 = alloca ptr, align 8
  %7 = alloca i32, align 4
  %8 = alloca i32, align 4
  %9 = alloca ptr, align 8
  %10 = alloca i32, align 4
  store ptr %0, ptr %5, align 8, !tbaa !11
  store ptr %1, ptr %6, align 8, !tbaa !6
  store i32 %2, ptr %7, align 4, !tbaa !13
  call void @llvm.lifetime.start.p0(i64 4, ptr %8) #7
  call void @llvm.lifetime.start.p0(i64 8, ptr %9) #7
  %11 = load ptr, ptr %5, align 8, !tbaa !11
  %12 = getelementptr inbounds nuw %struct.bio_st, ptr %11, i32 0, i32 9
  %13 = load ptr, ptr %12, align 8, !tbaa !15
  store ptr %13, ptr %9, align 8, !tbaa !19
  %14 = load ptr, ptr %9, align 8, !tbaa !19
  %15 = getelementptr inbounds nuw %struct.bio_connect_st, ptr %14, i32 0, i32 0
  %16 = load i32, ptr %15, align 8, !tbaa !21
  %17 = icmp ne i32 %16, 2
  br i1 %17, label %18, label %27

18:                                               ; preds = %3
  %19 = load ptr, ptr %5, align 8, !tbaa !11
  %20 = load ptr, ptr %9, align 8, !tbaa !19
  %21 = call i32 @conn_state(ptr noundef %19, ptr noundef %20)
  store i32 %21, ptr %8, align 4, !tbaa !13
  %22 = load i32, ptr %8, align 4, !tbaa !13
  %23 = icmp sle i32 %22, 0
  br i1 %23, label %24, label %26

24:                                               ; preds = %18
  %25 = load i32, ptr %8, align 4, !tbaa !13
  store i32 %25, ptr %4, align 4
  store i32 1, ptr %10, align 4
  br label %48

26:                                               ; preds = %18
  br label %27

27:                                               ; preds = %26, %3
  call void @bio_clear_socket_error()
  %28 = load ptr, ptr %5, align 8, !tbaa !11
  %29 = getelementptr inbounds nuw %struct.bio_st, ptr %28, i32 0, i32 7
  %30 = load i32, ptr %29, align 8, !tbaa !25
  %31 = load ptr, ptr %6, align 8, !tbaa !6
  %32 = load i32, ptr %7, align 4, !tbaa !13
  %33 = sext i32 %32 to i64
  %34 = call i64 @send(i32 noundef %30, ptr noundef %31, i64 noundef %33, i32 noundef 0)
  %35 = trunc i64 %34 to i32
  store i32 %35, ptr %8, align 4, !tbaa !13
  %36 = load ptr, ptr %5, align 8, !tbaa !11
  call void @BIO_clear_retry_flags(ptr noundef %36)
  %37 = load i32, ptr %8, align 4, !tbaa !13
  %38 = icmp sle i32 %37, 0
  br i1 %38, label %39, label %46

39:                                               ; preds = %27
  %40 = load i32, ptr %8, align 4, !tbaa !13
  %41 = call i32 @bio_fd_should_retry(i32 noundef %40)
  %42 = icmp ne i32 %41, 0
  br i1 %42, label %43, label %45

43:                                               ; preds = %39
  %44 = load ptr, ptr %5, align 8, !tbaa !11
  call void @BIO_set_retry_write(ptr noundef %44)
  br label %45

45:                                               ; preds = %43, %39
  br label %46

46:                                               ; preds = %45, %27
  %47 = load i32, ptr %8, align 4, !tbaa !13
  store i32 %47, ptr %4, align 4
  store i32 1, ptr %10, align 4
  br label %48

48:                                               ; preds = %46, %24
  call void @llvm.lifetime.end.p0(i64 8, ptr %9) #7
  call void @llvm.lifetime.end.p0(i64 4, ptr %8) #7
  %49 = load i32, ptr %4, align 4
  ret i32 %49
}